; Function Attrs: mustprogress uwtable
define hidden void @_ZN3smt10theory_str18assert_implicationEP4exprS2_(ptr noundef nonnull align 8 dereferenceable(1800) %0, ptr noundef %1, ptr noundef %2) local_unnamed_addr #4 align 2 personality ptr @__gxx_personality_v0 {
  %4 = alloca %class.obj_ref, align 8
  %5 = getelementptr inbounds nuw i8, ptr %0, i64 24
  %6 = load ptr, ptr %5, align 8, !tbaa !385
  call void @llvm.lifetime.start.p0(i64 16, ptr nonnull %4) #25
  %7 = tail call noundef ptr @_Z6mk_notR11ast_managerP4expr(ptr noundef nonnull align 8 dereferenceable(976) %6, ptr noundef %1)
  %8 = tail call noundef ptr @_ZN11ast_manager6mk_appEiiP4exprS1_(ptr noundef nonnull align 8 dereferenceable(976) %6, i32 noundef 0, i32 noundef 6, ptr noundef %7, ptr noundef %2)
  store ptr %8, ptr %4, align 8, !tbaa !252
  %9 = getelementptr inbounds nuw i8, ptr %4, i64 8
  store ptr %6, ptr %9, align 8, !tbaa !146
  %.not.i.i = icmp eq ptr %8, null
  br i1 %.not.i.i, label %_ZN7obj_refI4expr11ast_managerEC2EPS0_RS1_.exit, label %_ZN11ast_manager7inc_refEP3ast.exit.i.i

_ZN11ast_manager7inc_refEP3ast.exit.i.i:          ; preds = %3
  %10 = getelementptr inbounds nuw i8, ptr %8, i64 8
  %11 = load i32, ptr %10, align 4, !tbaa !253
  %12 = add i32 %11, 1
  store i32 %12, ptr %10, align 4, !tbaa !253
  br label %_ZN7obj_refI4expr11ast_managerEC2EPS0_RS1_.exit

_ZN7obj_refI4expr11ast_managerEC2EPS0_RS1_.exit:  ; preds = %3, %_ZN11ast_manager7inc_refEP3ast.exit.i.i
  invoke void @_ZN3smt10theory_str12assert_axiomEP4expr(ptr noundef nonnull align 8 dereferenceable(1800) %0, ptr noundef %8)
          to label %13 unwind label %23

13:                                               ; preds = %_ZN7obj_refI4expr11ast_managerEC2EPS0_RS1_.exit
  br i1 %.not.i.i, label %_ZN7obj_refI4expr11ast_managerED2Ev.exit, label %14

14:                                               ; preds = %13
  %15 = getelementptr inbounds nuw i8, ptr %8, i64 8
  %16 = load i32, ptr %15, align 4, !tbaa !253
  %17 = add i32 %16, -1
  store i32 %17, ptr %15, align 4, !tbaa !253
  %18 = icmp eq i32 %17, 0
  br i1 %18, label %19, label %_ZN7obj_refI4expr11ast_managerED2Ev.exit

19:                                               ; preds = %14
  invoke void @_ZN11ast_manager11delete_nodeEP3ast(ptr noundef nonnull align 8 dereferenceable(976) %6, ptr noundef nonnull %8)
          to label %_ZN7obj_refI4expr11ast_managerED2Ev.exit unwind label %20

20:                                               ; preds = %19
  %21 = landingpad { ptr, i32 }
          catch ptr null
  %22 = extractvalue { ptr, i32 } %21, 0
  tail call void @__clang_call_terminate(ptr %22) #26
  unreachable

_ZN7obj_refI4expr11ast_managerED2Ev.exit:         ; preds = %13, %14, %19
  call void @llvm.lifetime.end.p0(i64 16, ptr nonnull %4) #25
  ret void

23:                                               ; preds = %_ZN7obj_refI4expr11ast_managerEC2EPS0_RS1_.exit
  %24 = landingpad { ptr, i32 }
          cleanup
  call void @_ZN7obj_refI4expr11ast_managerED2Ev(ptr noundef nonnull align 8 dereferenceable(16) %4) #25
  call void @llvm.lifetime.end.p0(i64 16, ptr nonnull %4) #25
  resume { ptr, i32 } %24
}